(dp1
I0
(dp2
S'alternatives'
p3
(lp4
(lp5
(I0
I0
tp6
a(I0
I0
tp7
a(I0
I0
tp8
a(I0
I0
tp9
a(I0
I0
tp10
a(I0
I0
tp11
a(I0
I0
tp12
aa(lp13
(I0
I0
tp14
a(I0
I0
tp15
a(I0
I0
tp16
a(I0
I0
tp17
a(I0
I0
tp18
a(I144
I-18199
tp19
a(I4
I0
tp20
aasS'name'
p21
S'naa'
p22
ss.